target datalayout = "e-m:e-p270:32:32-p271:32:32-p272:64:64-i64:64-i128:128-f80:128-n8:16:32:64-S128"
target triple = "x86_64-unknown-linux-gnu"

%"class.std::map" = type { %"class.std::_Rb_tree" }
%"class.std::_Rb_tree" = type { %"struct.std::_Rb_tree<rocksdb::PeriodicTaskType, std::pair<const rocksdb::PeriodicTaskType, unsigned long>, std::_Select1st<std::pair<const rocksdb::PeriodicTaskType, unsigned long>>, std::less<rocksdb::PeriodicTaskType>>::_Rb_tree_impl" }
%"struct.std::_Rb_tree<rocksdb::PeriodicTaskType, std::pair<const rocksdb::PeriodicTaskType, unsigned long>, std::_Select1st<std::pair<const rocksdb::PeriodicTaskType, unsigned long>>, std::less<rocksdb::PeriodicTaskType>>::_Rb_tree_impl" = type { %"struct.std::_Rb_tree_key_compare", %"struct.std::_Rb_tree_header" }
%"struct.std::_Rb_tree_key_compare" = type { %"struct.std::less" }
%"struct.std::less" = type { i8 }
%"struct.std::_Rb_tree_header" = type { %"struct.std::_Rb_tree_node_base", i64 }
%"struct.std::_Rb_tree_node_base" = type { i32, ptr, ptr, ptr }
%"struct.std::pair" = type { i8, i64 }
%"class.rocksdb::Status" = type { i8, i8, i8, i8, i8, i8, %"class.std::unique_ptr" }
%"class.std::unique_ptr" = type { %"struct.std::__uniq_ptr_data" }
%"struct.std::__uniq_ptr_data" = type { %"class.std::__uniq_ptr_impl" }
%"class.std::__uniq_ptr_impl" = type { %"class.std::tuple" }
%"class.std::tuple" = type { %"struct.std::_Tuple_impl" }
%"struct.std::_Tuple_impl" = type { %"struct.std::_Head_base.18" }
%"struct.std::_Head_base.18" = type { ptr }
%"struct.std::_Rb_tree_const_iterator" = type { ptr }
%"struct.std::_Rb_tree_node" = type { %"struct.std::_Rb_tree_node_base", %"struct.__gnu_cxx::__aligned_membuf" }
%"struct.__gnu_cxx::__aligned_membuf" = type { [16 x i8] }
%"struct.std::_Select1st" = type { i8 }

@_ZN7rocksdbL21kDefaultPeriodSecondsE = internal global %"class.std::map" zeroinitializer, align 8
@.str.12 = private unnamed_addr constant [8 x i8] c"map::at\00", align 1

; Function Attrs: mustprogress nounwind uwtable
define linkonce_odr noundef nonnull align 1 dereferenceable(1) ptr @_ZNKSt10_Select1stISt4pairIKN7rocksdb16PeriodicTaskTypeEmEEclERKS4_(ptr noundef nonnull align 1 dereferenceable(1) %this, ptr noundef nonnull align 8 dereferenceable(16) %__x) #5 comdat align 2 {
entry:
  %this.addr = alloca ptr, align 8
  %__x.addr = alloca ptr, align 8
  store ptr %this, ptr %this.addr, align 8
  store ptr %__x, ptr %__x.addr, align 8
  %0 = load ptr, ptr %__x.addr, align 8
  %first = getelementptr inbounds %"struct.std::pair", ptr %0, i32 0, i32 0
  ret ptr %first
}

; Function Attrs: mustprogress nounwind uwtable
define linkonce_odr noundef ptr @_ZNK9__gnu_cxx16__aligned_membufISt4pairIKN7rocksdb16PeriodicTaskTypeEmEE7_M_addrEv(ptr noundef nonnull align 8 dereferenceable(16) %this) #5 comdat align 2 {
entry:
  %this.addr = alloca ptr, align 8
  store ptr %this, ptr %this.addr, align 8
  %this1 = load ptr, ptr %this.addr, align 8
  %_M_storage = getelementptr inbounds %"struct.__gnu_cxx::__aligned_membuf", ptr %this1, i32 0, i32 0
  ret ptr %_M_storage
}

; Function Attrs: mustprogress nounwind uwtable
define linkonce_odr noundef ptr @_ZNSt8_Rb_treeIN7rocksdb16PeriodicTaskTypeESt4pairIKS1_mESt10_Select1stIS4_ESt4lessIS1_ESaIS4_EE8_S_rightEPKSt18_Rb_tree_node_base(ptr noundef %__x) #5 comdat align 2 {
entry:
  %__x.addr = alloca ptr, align 8
  store ptr %__x, ptr %__x.addr, align 8
  %0 = load ptr, ptr %__x.addr, align 8
  %_M_right = getelementptr inbounds %"struct.std::_Rb_tree_node_base", ptr %0, i32 0, i32 3
  %1 = load ptr, ptr %_M_right, align 8
  ret ptr %1
}

; Function Attrs: mustprogress nounwind uwtable
define linkonce_odr noundef ptr @_ZNSt8_Rb_treeIN7rocksdb16PeriodicTaskTypeESt4pairIKS1_mESt10_Select1stIS4_ESt4lessIS1_ESaIS4_EE7_S_leftEPKSt18_Rb_tree_node_base(ptr noundef %__x) #5 comdat align 2 {
entry:
  %__x.addr = alloca ptr, align 8
  store ptr %__x, ptr %__x.addr, align 8
  %0 = load ptr, ptr %__x.addr, align 8
  %_M_left = getelementptr inbounds %"struct.std::_Rb_tree_node_base", ptr %0, i32 0, i32 2
  %1 = load ptr, ptr %_M_left, align 8
  ret ptr %1
}

; Function Attrs: mustprogress uwtable
define linkonce_odr noundef nonnull align 1 dereferenceable(1) ptr @_ZNSt8_Rb_treeIN7rocksdb16PeriodicTaskTypeESt4pairIKS1_mESt10_Select1stIS4_ESt4lessIS1_ESaIS4_EE6_S_keyEPKSt13_Rb_tree_nodeIS4_E(ptr noundef %__x) #6 comdat align 2 {
entry:
  %__x.addr = alloca ptr, align 8
  %ref.tmp = alloca %"struct.std::_Select1st", align 1
  store ptr %__x, ptr %__x.addr, align 8
  %0 = load ptr, ptr %__x.addr, align 8
  %call = call noundef ptr @_ZNKSt13_Rb_tree_nodeISt4pairIKN7rocksdb16PeriodicTaskTypeEmEE9_M_valptrEv(ptr noundef nonnull align 8 dereferenceable(48) %0)
  %call1 = call noundef nonnull align 1 dereferenceable(1) ptr @_ZNKSt10_Select1stISt4pairIKN7rocksdb16PeriodicTaskTypeEmEEclERKS4_(ptr noundef nonnull align 1 dereferenceable(1) %ref.tmp, ptr noundef nonnull align 8 dereferenceable(16) %call)
  ret ptr %call1
}

; Function Attrs: mustprogress nounwind uwtable
define linkonce_odr noundef ptr @_ZNK9__gnu_cxx16__aligned_membufISt4pairIKN7rocksdb16PeriodicTaskTypeEmEE6_M_ptrEv(ptr noundef nonnull align 8 dereferenceable(16) %this) #5 comdat align 2 {
entry:
  %this.addr = alloca ptr, align 8
  store ptr %this, ptr %this.addr, align 8
  %this1 = load ptr, ptr %this.addr, align 8
  %call = call noundef ptr @_ZNK9__gnu_cxx16__aligned_membufISt4pairIKN7rocksdb16PeriodicTaskTypeEmEE7_M_addrEv(ptr noundef nonnull align 8 dereferenceable(16) %this1) #3
  ret ptr %call
}

; Function Attrs: mustprogress nounwind uwtable
define linkonce_odr void @_ZNSt23_Rb_tree_const_iteratorISt4pairIKN7rocksdb16PeriodicTaskTypeEmEEC2EPKSt18_Rb_tree_node_base(ptr noundef nonnull align 8 dereferenceable(8) %this, ptr noundef %__x) unnamed_addr #5 comdat align 2 {
entry:
  %this.addr = alloca ptr, align 8
  %__x.addr = alloca ptr, align 8
  store ptr %this, ptr %this.addr, align 8
  store ptr %__x, ptr %__x.addr, align 8
  %this1 = load ptr, ptr %this.addr, align 8
  %_M_node = getelementptr inbounds %"struct.std::_Rb_tree_const_iterator", ptr %this1, i32 0, i32 0
  %0 = load ptr, ptr %__x.addr, align 8
  store ptr %0, ptr %_M_node, align 8
  ret void
}

; Function Attrs: mustprogress uwtable
define linkonce_odr ptr @_ZNKSt8_Rb_treeIN7rocksdb16PeriodicTaskTypeESt4pairIKS1_mESt10_Select1stIS4_ESt4lessIS1_ESaIS4_EE14_M_lower_boundEPKSt13_Rb_tree_nodeIS4_EPKSt18_Rb_tree_node_baseRS3_(ptr noundef nonnull align 8 dereferenceable(48) %this, ptr noundef %__x, ptr noundef %__y, ptr noundef nonnull align 1 dereferenceable(1) %__k) #6 comdat align 2 {
entry:
  %retval = alloca %"struct.std::_Rb_tree_const_iterator", align 8
  %this.addr = alloca ptr, align 8
  %__x.addr = alloca ptr, align 8
  %__y.addr = alloca ptr, align 8
  %__k.addr = alloca ptr, align 8
  store ptr %this, ptr %this.addr, align 8
  store ptr %__x, ptr %__x.addr, align 8
  store ptr %__y, ptr %__y.addr, align 8
  store ptr %__k, ptr %__k.addr, align 8
  %this1 = load ptr, ptr %this.addr, align 8
  br label %while.cond

while.cond:                                       ; preds = %if.end, %entry
  %0 = load ptr, ptr %__x.addr, align 8
  %cmp = icmp ne ptr %0, null
  br i1 %cmp, label %while.body, label %while.end

while.body:                                       ; preds = %while.cond
  %_M_impl = getelementptr inbounds %"class.std::_Rb_tree", ptr %this1, i32 0, i32 0
  %_M_key_compare = getelementptr inbounds %"struct.std::_Rb_tree_key_compare", ptr %_M_impl, i32 0, i32 0
  %1 = load ptr, ptr %__x.addr, align 8
  %call = call noundef nonnull align 1 dereferenceable(1) ptr @_ZNSt8_Rb_treeIN7rocksdb16PeriodicTaskTypeESt4pairIKS1_mESt10_Select1stIS4_ESt4lessIS1_ESaIS4_EE6_S_keyEPKSt13_Rb_tree_nodeIS4_E(ptr noundef %1)
  %2 = load ptr, ptr %__k.addr, align 8
  %call2 = call noundef zeroext i1 @_ZNKSt4lessIN7rocksdb16PeriodicTaskTypeEEclERKS1_S4_(ptr noundef nonnull align 1 dereferenceable(1) %_M_key_compare, ptr noundef nonnull align 1 dereferenceable(1) %call, ptr noundef nonnull align 1 dereferenceable(1) %2)
  br i1 %call2, label %if.else, label %if.then

if.then:                                          ; preds = %while.body
  %3 = load ptr, ptr %__x.addr, align 8
  store ptr %3, ptr %__y.addr, align 8
  %4 = load ptr, ptr %__x.addr, align 8
  %call3 = call noundef ptr @_ZNSt8_Rb_treeIN7rocksdb16PeriodicTaskTypeESt4pairIKS1_mESt10_Select1stIS4_ESt4lessIS1_ESaIS4_EE7_S_leftEPKSt18_Rb_tree_node_base(ptr noundef %4) #3
  store ptr %call3, ptr %__x.addr, align 8
  br label %if.end

if.else:                                          ; preds = %while.body
  %5 = load ptr, ptr %__x.addr, align 8
  %call4 = call noundef ptr @_ZNSt8_Rb_treeIN7rocksdb16PeriodicTaskTypeESt4pairIKS1_mESt10_Select1stIS4_ESt4lessIS1_ESaIS4_EE8_S_rightEPKSt18_Rb_tree_node_base(ptr noundef %5) #3
  store ptr %call4, ptr %__x.addr, align 8
  br label %if.end

if.end:                                           ; preds = %if.else, %if.then
  br label %while.cond, !llvm.loop !26

while.end:                                        ; preds = %while.cond
  %6 = load ptr, ptr %__y.addr, align 8
  call void @_ZNSt23_Rb_tree_const_iteratorISt4pairIKN7rocksdb16PeriodicTaskTypeEmEEC2EPKSt18_Rb_tree_node_base(ptr noundef nonnull align 8 dereferenceable(8) %retval, ptr noundef %6) #3
  %coerce.dive = getelementptr inbounds %"struct.std::_Rb_tree_const_iterator", ptr %retval, i32 0, i32 0
  %7 = load ptr, ptr %coerce.dive, align 8
  ret ptr %7
}

; Function Attrs: mustprogress nounwind uwtable
define linkonce_odr noundef ptr @_ZNKSt8_Rb_treeIN7rocksdb16PeriodicTaskTypeESt4pairIKS1_mESt10_Select1stIS4_ESt4lessIS1_ESaIS4_EE6_M_endEv(ptr noundef nonnull align 8 dereferenceable(48) %this) #5 comdat align 2 {
entry:
  %this.addr = alloca ptr, align 8
  store ptr %this, ptr %this.addr, align 8
  %this1 = load ptr, ptr %this.addr, align 8
  %_M_impl = getelementptr inbounds %"class.std::_Rb_tree", ptr %this1, i32 0, i32 0
  %add.ptr = getelementptr inbounds i8, ptr %_M_impl, i64 8
  %_M_header = getelementptr inbounds %"struct.std::_Rb_tree_header", ptr %add.ptr, i32 0, i32 0
  ret ptr %_M_header
}

; Function Attrs: mustprogress nounwind uwtable
define linkonce_odr noundef ptr @_ZNKSt8_Rb_treeIN7rocksdb16PeriodicTaskTypeESt4pairIKS1_mESt10_Select1stIS4_ESt4lessIS1_ESaIS4_EE8_M_beginEv(ptr noundef nonnull align 8 dereferenceable(48) %this) #5 comdat align 2 {
entry:
  %this.addr = alloca ptr, align 8
  store ptr %this, ptr %this.addr, align 8
  %this1 = load ptr, ptr %this.addr, align 8
  %_M_impl = getelementptr inbounds %"class.std::_Rb_tree", ptr %this1, i32 0, i32 0
  %add.ptr = getelementptr inbounds i8, ptr %_M_impl, i64 8
  %_M_header = getelementptr inbounds %"struct.std::_Rb_tree_header", ptr %add.ptr, i32 0, i32 0
  %_M_parent = getelementptr inbounds %"struct.std::_Rb_tree_node_base", ptr %_M_header, i32 0, i32 1
  %0 = load ptr, ptr %_M_parent, align 8
  ret ptr %0
}

; Function Attrs: mustprogress nounwind uwtable
define linkonce_odr noundef ptr @_ZNKSt13_Rb_tree_nodeISt4pairIKN7rocksdb16PeriodicTaskTypeEmEE9_M_valptrEv(ptr noundef nonnull align 8 dereferenceable(48) %this) #5 comdat align 2 {
entry:
  %this.addr = alloca ptr, align 8
  store ptr %this, ptr %this.addr, align 8
  %this1 = load ptr, ptr %this.addr, align 8
  %_M_storage = getelementptr inbounds %"struct.std::_Rb_tree_node", ptr %this1, i32 0, i32 1
  %call = call noundef ptr @_ZNK9__gnu_cxx16__aligned_membufISt4pairIKN7rocksdb16PeriodicTaskTypeEmEE6_M_ptrEv(ptr noundef nonnull align 8 dereferenceable(16) %_M_storage) #3
  ret ptr %call
}

; Function Attrs: mustprogress nounwind uwtable
define linkonce_odr void @_ZNKSt8_Rb_treeIN7rocksdb16PeriodicTaskTypeESt4pairIKS1_mESt10_Select1stIS4_ESt4lessIS1_ESaIS4_EE8key_compEv(ptr noundef nonnull align 8 dereferenceable(48) %this) #5 comdat align 2 {
entry:
  %this.addr = alloca ptr, align 8
  store ptr %this, ptr %this.addr, align 8
  ret void
}

; Function Attrs: mustprogress nounwind uwtable
define linkonce_odr ptr @_ZNKSt8_Rb_treeIN7rocksdb16PeriodicTaskTypeESt4pairIKS1_mESt10_Select1stIS4_ESt4lessIS1_ESaIS4_EE3endEv(ptr noundef nonnull align 8 dereferenceable(48) %this) #5 comdat align 2 {
entry:
  %retval = alloca %"struct.std::_Rb_tree_const_iterator", align 8
  %this.addr = alloca ptr, align 8
  store ptr %this, ptr %this.addr, align 8
  %this1 = load ptr, ptr %this.addr, align 8
  %_M_impl = getelementptr inbounds %"class.std::_Rb_tree", ptr %this1, i32 0, i32 0
  %add.ptr = getelementptr inbounds i8, ptr %_M_impl, i64 8
  %_M_header = getelementptr inbounds %"struct.std::_Rb_tree_header", ptr %add.ptr, i32 0, i32 0
  call void @_ZNSt23_Rb_tree_const_iteratorISt4pairIKN7rocksdb16PeriodicTaskTypeEmEEC2EPKSt18_Rb_tree_node_base(ptr noundef nonnull align 8 dereferenceable(8) %retval, ptr noundef %_M_header) #3
  %coerce.dive = getelementptr inbounds %"struct.std::_Rb_tree_const_iterator", ptr %retval, i32 0, i32 0
  %0 = load ptr, ptr %coerce.dive, align 8
  ret ptr %0
}

; Function Attrs: mustprogress uwtable
define linkonce_odr ptr @_ZNKSt8_Rb_treeIN7rocksdb16PeriodicTaskTypeESt4pairIKS1_mESt10_Select1stIS4_ESt4lessIS1_ESaIS4_EE11lower_boundERS3_(ptr noundef nonnull align 8 dereferenceable(48) %this, ptr noundef nonnull align 1 dereferenceable(1) %__k) #6 comdat align 2 {
entry:
  %retval = alloca %"struct.std::_Rb_tree_const_iterator", align 8
  %this.addr = alloca ptr, align 8
  %__k.addr = alloca ptr, align 8
  store ptr %this, ptr %this.addr, align 8
  store ptr %__k, ptr %__k.addr, align 8
  %this1 = load ptr, ptr %this.addr, align 8
  %call = call noundef ptr @_ZNKSt8_Rb_treeIN7rocksdb16PeriodicTaskTypeESt4pairIKS1_mESt10_Select1stIS4_ESt4lessIS1_ESaIS4_EE8_M_beginEv(ptr noundef nonnull align 8 dereferenceable(48) %this1) #3
  %call2 = call noundef ptr @_ZNKSt8_Rb_treeIN7rocksdb16PeriodicTaskTypeESt4pairIKS1_mESt10_Select1stIS4_ESt4lessIS1_ESaIS4_EE6_M_endEv(ptr noundef nonnull align 8 dereferenceable(48) %this1) #3
  %0 = load ptr, ptr %__k.addr, align 8
  %call3 = call ptr @_ZNKSt8_Rb_treeIN7rocksdb16PeriodicTaskTypeESt4pairIKS1_mESt10_Select1stIS4_ESt4lessIS1_ESaIS4_EE14_M_lower_boundEPKSt13_Rb_tree_nodeIS4_EPKSt18_Rb_tree_node_baseRS3_(ptr noundef nonnull align 8 dereferenceable(48) %this1, ptr noundef %call, ptr noundef %call2, ptr noundef nonnull align 1 dereferenceable(1) %0)
  %coerce.dive = getelementptr inbounds %"struct.std::_Rb_tree_const_iterator", ptr %retval, i32 0, i32 0
  store ptr %call3, ptr %coerce.dive, align 8
  %coerce.dive4 = getelementptr inbounds %"struct.std::_Rb_tree_const_iterator", ptr %retval, i32 0, i32 0
  %1 = load ptr, ptr %coerce.dive4, align 8
  ret ptr %1
}

; Function Attrs: mustprogress nounwind uwtable
define linkonce_odr noundef zeroext i1 @_ZNKSt4lessIN7rocksdb16PeriodicTaskTypeEEclERKS1_S4_(ptr noundef nonnull align 1 dereferenceable(1) %this, ptr noundef nonnull align 1 dereferenceable(1) %__x, ptr noundef nonnull align 1 dereferenceable(1) %__y) #5 comdat align 2 {
entry:
  %this.addr = alloca ptr, align 8
  %__x.addr = alloca ptr, align 8
  %__y.addr = alloca ptr, align 8
  store ptr %this, ptr %this.addr, align 8
  store ptr %__x, ptr %__x.addr, align 8
  store ptr %__y, ptr %__y.addr, align 8
  %0 = load ptr, ptr %__x.addr, align 8
  %1 = load i8, ptr %0, align 1
  %2 = load ptr, ptr %__y.addr, align 8
  %3 = load i8, ptr %2, align 1
  %cmp = icmp ult i8 %1, %3
  ret i1 %cmp
}

; Function Attrs: mustprogress nounwind uwtable
define linkonce_odr noundef nonnull align 8 dereferenceable(16) ptr @_ZNKSt23_Rb_tree_const_iteratorISt4pairIKN7rocksdb16PeriodicTaskTypeEmEEdeEv(ptr noundef nonnull align 8 dereferenceable(8) %this) #5 comdat align 2 {
entry:
  %this.addr = alloca ptr, align 8
  store ptr %this, ptr %this.addr, align 8
  %this1 = load ptr, ptr %this.addr, align 8
  %_M_node = getelementptr inbounds %"struct.std::_Rb_tree_const_iterator", ptr %this1, i32 0, i32 0
  %0 = load ptr, ptr %_M_node, align 8
  %call = call noundef ptr @_ZNKSt13_Rb_tree_nodeISt4pairIKN7rocksdb16PeriodicTaskTypeEmEE9_M_valptrEv(ptr noundef nonnull align 8 dereferenceable(48) %0)
  ret ptr %call
}

; Function Attrs: mustprogress uwtable
define linkonce_odr void @_ZNKSt3mapIN7rocksdb16PeriodicTaskTypeEmSt4lessIS1_ESaISt4pairIKS1_mEEE8key_compEv(ptr noundef nonnull align 8 dereferenceable(48) %this) #6 comdat align 2 {
entry:
  %this.addr = alloca ptr, align 8
  store ptr %this, ptr %this.addr, align 8
  %this1 = load ptr, ptr %this.addr, align 8
  %_M_t = getelementptr inbounds %"class.std::map", ptr %this1, i32 0, i32 0
  call void @_ZNKSt8_Rb_treeIN7rocksdb16PeriodicTaskTypeESt4pairIKS1_mESt10_Select1stIS4_ESt4lessIS1_ESaIS4_EE8key_compEv(ptr noundef nonnull align 8 dereferenceable(48) %_M_t)
  ret void
}

; Function Attrs: mustprogress nounwind uwtable
define linkonce_odr noundef zeroext i1 @_ZSteqRKSt23_Rb_tree_const_iteratorISt4pairIKN7rocksdb16PeriodicTaskTypeEmEES7_(ptr noundef nonnull align 8 dereferenceable(8) %__x, ptr noundef nonnull align 8 dereferenceable(8) %__y) #5 comdat {
entry:
  %__x.addr = alloca ptr, align 8
  %__y.addr = alloca ptr, align 8
  store ptr %__x, ptr %__x.addr, align 8
  store ptr %__y, ptr %__y.addr, align 8
  %0 = load ptr, ptr %__x.addr, align 8
  %_M_node = getelementptr inbounds %"struct.std::_Rb_tree_const_iterator", ptr %0, i32 0, i32 0
  %1 = load ptr, ptr %_M_node, align 8
  %2 = load ptr, ptr %__y.addr, align 8
  %_M_node1 = getelementptr inbounds %"struct.std::_Rb_tree_const_iterator", ptr %2, i32 0, i32 0
  %3 = load ptr, ptr %_M_node1, align 8
  %cmp = icmp eq ptr %1, %3
  ret i1 %cmp
}

; Function Attrs: mustprogress nounwind uwtable
define linkonce_odr ptr @_ZNKSt3mapIN7rocksdb16PeriodicTaskTypeEmSt4lessIS1_ESaISt4pairIKS1_mEEE3endEv(ptr noundef nonnull align 8 dereferenceable(48) %this) #5 comdat align 2 {
entry:
  %retval = alloca %"struct.std::_Rb_tree_const_iterator", align 8
  %this.addr = alloca ptr, align 8
  store ptr %this, ptr %this.addr, align 8
  %this1 = load ptr, ptr %this.addr, align 8
  %_M_t = getelementptr inbounds %"class.std::map", ptr %this1, i32 0, i32 0
  %call = call ptr @_ZNKSt8_Rb_treeIN7rocksdb16PeriodicTaskTypeESt4pairIKS1_mESt10_Select1stIS4_ESt4lessIS1_ESaIS4_EE3endEv(ptr noundef nonnull align 8 dereferenceable(48) %_M_t) #3
  %coerce.dive = getelementptr inbounds %"struct.std::_Rb_tree_const_iterator", ptr %retval, i32 0, i32 0
  store ptr %call, ptr %coerce.dive, align 8
  %coerce.dive2 = getelementptr inbounds %"struct.std::_Rb_tree_const_iterator", ptr %retval, i32 0, i32 0
  %0 = load ptr, ptr %coerce.dive2, align 8
  ret ptr %0
}

; Function Attrs: mustprogress uwtable
define linkonce_odr ptr @_ZNKSt3mapIN7rocksdb16PeriodicTaskTypeEmSt4lessIS1_ESaISt4pairIKS1_mEEE11lower_boundERS5_(ptr noundef nonnull align 8 dereferenceable(48) %this, ptr noundef nonnull align 1 dereferenceable(1) %__x) #6 comdat align 2 {
entry:
  %retval = alloca %"struct.std::_Rb_tree_const_iterator", align 8
  %this.addr = alloca ptr, align 8
  %__x.addr = alloca ptr, align 8
  store ptr %this, ptr %this.addr, align 8
  store ptr %__x, ptr %__x.addr, align 8
  %this1 = load ptr, ptr %this.addr, align 8
  %_M_t = getelementptr inbounds %"class.std::map", ptr %this1, i32 0, i32 0
  %0 = load ptr, ptr %__x.addr, align 8
  %call = call ptr @_ZNKSt8_Rb_treeIN7rocksdb16PeriodicTaskTypeESt4pairIKS1_mESt10_Select1stIS4_ESt4lessIS1_ESaIS4_EE11lower_boundERS3_(ptr noundef nonnull align 8 dereferenceable(48) %_M_t, ptr noundef nonnull align 1 dereferenceable(1) %0)
  %coerce.dive = getelementptr inbounds %"struct.std::_Rb_tree_const_iterator", ptr %retval, i32 0, i32 0
  store ptr %call, ptr %coerce.dive, align 8
  %coerce.dive2 = getelementptr inbounds %"struct.std::_Rb_tree_const_iterator", ptr %retval, i32 0, i32 0
  %1 = load ptr, ptr %coerce.dive2, align 8
  ret ptr %1
}

; Function Attrs: mustprogress uwtable
define linkonce_odr noundef nonnull align 8 dereferenceable(8) ptr @_ZNKSt3mapIN7rocksdb16PeriodicTaskTypeEmSt4lessIS1_ESaISt4pairIKS1_mEEE2atERS5_(ptr noundef nonnull align 8 dereferenceable(48) %this, ptr noundef nonnull align 1 dereferenceable(1) %__k) #6 comdat align 2 {
entry:
  %this.addr = alloca ptr, align 8
  %__k.addr = alloca ptr, align 8
  %__i = alloca %"struct.std::_Rb_tree_const_iterator", align 8
  %ref.tmp = alloca %"struct.std::_Rb_tree_const_iterator", align 8
  %ref.tmp5 = alloca %"struct.std::less", align 1
  store ptr %this, ptr %this.addr, align 8
  store ptr %__k, ptr %__k.addr, align 8
  %this1 = load ptr, ptr %this.addr, align 8
  %0 = load ptr, ptr %__k.addr, align 8
  %call = call ptr @_ZNKSt3mapIN7rocksdb16PeriodicTaskTypeEmSt4lessIS1_ESaISt4pairIKS1_mEEE11lower_boundERS5_(ptr noundef nonnull align 8 dereferenceable(48) %this1, ptr noundef nonnull align 1 dereferenceable(1) %0)
  %coerce.dive = getelementptr inbounds %"struct.std::_Rb_tree_const_iterator", ptr %__i, i32 0, i32 0
  store ptr %call, ptr %coerce.dive, align 8
  %call2 = call ptr @_ZNKSt3mapIN7rocksdb16PeriodicTaskTypeEmSt4lessIS1_ESaISt4pairIKS1_mEEE3endEv(ptr noundef nonnull align 8 dereferenceable(48) %this1) #3
  %coerce.dive3 = getelementptr inbounds %"struct.std::_Rb_tree_const_iterator", ptr %ref.tmp, i32 0, i32 0
  store ptr %call2, ptr %coerce.dive3, align 8
  %call4 = call noundef zeroext i1 @_ZSteqRKSt23_Rb_tree_const_iteratorISt4pairIKN7rocksdb16PeriodicTaskTypeEmEES7_(ptr noundef nonnull align 8 dereferenceable(8) %__i, ptr noundef nonnull align 8 dereferenceable(8) %ref.tmp) #3
  br i1 %call4, label %lor.end, label %lor.rhs

lor.rhs:                                          ; preds = %entry
  call void @_ZNKSt3mapIN7rocksdb16PeriodicTaskTypeEmSt4lessIS1_ESaISt4pairIKS1_mEEE8key_compEv(ptr noundef nonnull align 8 dereferenceable(48) %this1)
  %1 = load ptr, ptr %__k.addr, align 8
  %call6 = call noundef nonnull align 8 dereferenceable(16) ptr @_ZNKSt23_Rb_tree_const_iteratorISt4pairIKN7rocksdb16PeriodicTaskTypeEmEEdeEv(ptr noundef nonnull align 8 dereferenceable(8) %__i) #3
  %first = getelementptr inbounds %"struct.std::pair", ptr %call6, i32 0, i32 0
  %call7 = call noundef zeroext i1 @_ZNKSt4lessIN7rocksdb16PeriodicTaskTypeEEclERKS1_S4_(ptr noundef nonnull align 1 dereferenceable(1) %ref.tmp5, ptr noundef nonnull align 1 dereferenceable(1) %1, ptr noundef nonnull align 1 dereferenceable(1) %first)
  br label %lor.end

lor.end:                                          ; preds = %lor.rhs, %entry
  %2 = phi i1 [ true, %entry ], [ %call7, %lor.rhs ]
  br i1 %2, label %if.then, label %if.end

if.then:                                          ; preds = %lor.end
  call void @_ZSt20__throw_out_of_rangePKc(ptr noundef @.str.12) #14
  unreachable

if.end:                                           ; preds = %lor.end
  %call8 = call noundef nonnull align 8 dereferenceable(16) ptr @_ZNKSt23_Rb_tree_const_iteratorISt4pairIKN7rocksdb16PeriodicTaskTypeEmEEdeEv(ptr noundef nonnull align 8 dereferenceable(8) %__i) #3
  %second = getelementptr inbounds %"struct.std::pair", ptr %call8, i32 0, i32 1
  ret ptr %second
}

; Function Attrs: mustprogress uwtable
define void @_ZN7rocksdb21PeriodicTaskScheduler8RegisterENS_16PeriodicTaskTypeERKSt8functionIFvvEE(ptr noalias sret(%"class.rocksdb::Status") align 8 %agg.result, ptr noundef nonnull align 8 dereferenceable(56) %this, i8 noundef zeroext %task_type, ptr noundef nonnull align 8 dereferenceable(32) %fn) #6 align 2 {
entry:
  %result.ptr = alloca ptr, align 8
  %this.addr = alloca ptr, align 8
  %task_type.addr = alloca i8, align 1
  %fn.addr = alloca ptr, align 8
  store ptr %agg.result, ptr %result.ptr, align 8
  store ptr %this, ptr %this.addr, align 8
  store i8 %task_type, ptr %task_type.addr, align 1
  store ptr %fn, ptr %fn.addr, align 8
  %this1 = load ptr, ptr %this.addr, align 8
  %0 = load i8, ptr %task_type.addr, align 1
  %1 = load ptr, ptr %fn.addr, align 8
  %call = call noundef nonnull align 8 dereferenceable(8) ptr @_ZNKSt3mapIN7rocksdb16PeriodicTaskTypeEmSt4lessIS1_ESaISt4pairIKS1_mEEE2atERS5_(ptr noundef nonnull align 8 dereferenceable(48) @_ZN7rocksdbL21kDefaultPeriodSecondsE, ptr noundef nonnull align 1 dereferenceable(1) %task_type.addr)
  %2 = load i64, ptr %call, align 8
  call void @_ZN7rocksdb21PeriodicTaskScheduler8RegisterENS_16PeriodicTaskTypeERKSt8functionIFvvEEm(ptr sret(%"class.rocksdb::Status") align 8 %agg.result, ptr noundef nonnull align 8 dereferenceable(56) %this1, i8 noundef zeroext %0, ptr noundef nonnull align 8 dereferenceable(32) %1, i64 noundef %2)
  ret void
}