; Function Attrs: mustprogress uwtable
define void @_ZN7rocksdb21PeriodicTaskScheduler8RegisterENS_16PeriodicTaskTypeERKSt8functionIFvvEE(ptr noalias sret(%"class.rocksdb::Status") align 8 %agg.result, ptr noundef nonnull align 8 dereferenceable(56) %this, i8 noundef zeroext %task_type, ptr noundef nonnull align 8 dereferenceable(32) %fn) local_unnamed_addr #4 align 2 {
entry:
  %0 = load ptr, ptr getelementptr inbounds (%"class.std::map", ptr @_ZN7rocksdbL21kDefaultPeriodSecondsE, i64 0, i32 0, i32 0, i32 1, i32 0, i32 1), align 8
  %cmp.not5.i.i.i.i = icmp eq ptr %0, null
  br i1 %cmp.not5.i.i.i.i, label %if.then.i, label %while.body.i.i.i.i

while.body.i.i.i.i:                               ; preds = %entry, %while.body.i.i.i.i
  %__x.addr.07.i.i.i.i = phi ptr [ %__x.addr.1.i.i.i.i, %while.body.i.i.i.i ], [ %0, %entry ]
  %__y.addr.06.i.i.i.i = phi ptr [ %__y.addr.1.i.i.i.i, %while.body.i.i.i.i ], [ getelementptr inbounds (%"class.std::map", ptr @_ZN7rocksdbL21kDefaultPeriodSecondsE, i64 0, i32 0, i32 0, i32 1, i32 0, i32 0), %entry ]
  %_M_storage.i.i.i.i.i.i = getelementptr inbounds i8, ptr %__x.addr.07.i.i.i.i, i64 32
  %1 = load i8, ptr %_M_storage.i.i.i.i.i.i, align 1
  %cmp.i.i.i.i.i = icmp ult i8 %1, %task_type
  %__y.addr.1.i.i.i.i = select i1 %cmp.i.i.i.i.i, ptr %__y.addr.06.i.i.i.i, ptr %__x.addr.07.i.i.i.i
  %__x.addr.1.in.v.i.i.i.i = select i1 %cmp.i.i.i.i.i, i64 24, i64 16
  %__x.addr.1.in.i.i.i.i = getelementptr inbounds i8, ptr %__x.addr.07.i.i.i.i, i64 %__x.addr.1.in.v.i.i.i.i
  %__x.addr.1.i.i.i.i = load ptr, ptr %__x.addr.1.in.i.i.i.i, align 8
  %cmp.not.i.i.i.i = icmp eq ptr %__x.addr.1.i.i.i.i, null
  br i1 %cmp.not.i.i.i.i, label %_ZNKSt3mapIN7rocksdb16PeriodicTaskTypeEmSt4lessIS1_ESaISt4pairIKS1_mEEE11lower_boundERS5_.exit.i, label %while.body.i.i.i.i, !llvm.loop !9

_ZNKSt3mapIN7rocksdb16PeriodicTaskTypeEmSt4lessIS1_ESaISt4pairIKS1_mEEE11lower_boundERS5_.exit.i: ; preds = %while.body.i.i.i.i
  %cmp.i.i = icmp eq ptr %__y.addr.1.i.i.i.i, getelementptr inbounds (%"class.std::map", ptr @_ZN7rocksdbL21kDefaultPeriodSecondsE, i64 0, i32 0, i32 0, i32 1, i32 0, i32 0)
  br i1 %cmp.i.i, label %if.then.i, label %lor.rhs.i

lor.rhs.i:                                        ; preds = %_ZNKSt3mapIN7rocksdb16PeriodicTaskTypeEmSt4lessIS1_ESaISt4pairIKS1_mEEE11lower_boundERS5_.exit.i
  %_M_storage.i.i.i = getelementptr inbounds i8, ptr %__y.addr.1.i.i.i.i, i64 32
  %2 = load i8, ptr %_M_storage.i.i.i, align 1
  %cmp.i2.i = icmp ugt i8 %2, %task_type
  br i1 %cmp.i2.i, label %if.then.i, label %_ZNKSt3mapIN7rocksdb16PeriodicTaskTypeEmSt4lessIS1_ESaISt4pairIKS1_mEEE2atERS5_.exit

if.then.i:                                        ; preds = %lor.rhs.i, %_ZNKSt3mapIN7rocksdb16PeriodicTaskTypeEmSt4lessIS1_ESaISt4pairIKS1_mEEE11lower_boundERS5_.exit.i, %entry
  tail call void @_ZSt20__throw_out_of_rangePKc(ptr noundef nonnull @.str.12) #22
  unreachable

_ZNKSt3mapIN7rocksdb16PeriodicTaskTypeEmSt4lessIS1_ESaISt4pairIKS1_mEEE2atERS5_.exit: ; preds = %lor.rhs.i
  %second.i = getelementptr inbounds i8, ptr %__y.addr.1.i.i.i.i, i64 40
  %3 = load i64, ptr %second.i, align 8
  tail call void @_ZN7rocksdb21PeriodicTaskScheduler8RegisterENS_16PeriodicTaskTypeERKSt8functionIFvvEEm(ptr sret(%"class.rocksdb::Status") align 8 %agg.result, ptr noundef nonnull align 8 dereferenceable(56) %this, i8 noundef zeroext %task_type, ptr noundef nonnull align 8 dereferenceable(32) %fn, i64 noundef %3)
  ret void
}